target datalayout = "e-m:e-p270:32:32-p271:32:32-p272:64:64-i64:64-i128:128-f80:128-n8:16:32:64-S128"
target triple = "x86_64-pc-linux-gnu"

%struct.pg_conn = type { ptr, ptr, ptr, ptr, ptr, ptr, ptr, ptr, ptr, ptr, ptr, ptr, ptr, ptr, ptr, ptr, ptr, ptr, ptr, ptr, ptr, ptr, ptr, ptr, ptr, ptr, ptr, ptr, ptr, ptr, ptr, ptr, ptr, ptr, ptr, ptr, ptr, ptr, ptr, ptr, ptr, ptr, ptr, i8, ptr, i32, %struct.PGNoticeHooks, ptr, i32, i32, i32, i32, i32, [6 x i8], i8, i8, i32, i8, i8, i32, i8, i32, ptr, ptr, i32, i32, ptr, ptr, ptr, ptr, ptr, i32, %struct.SockAddr, %struct.SockAddr, i32, i32, i8, i8, i8, i8, i8, i8, ptr, i8, i32, [1 x ptr], i8, i8, ptr, ptr, i32, i32, i32, i8, i8, i32, i32, ptr, i8, i64, ptr, i64, ptr, i32, i32, ptr, i32, i8, i32, i32, i32, i32, ptr, %struct.pg_prng_state, ptr, i32, i32, i32, i32, ptr, i32, i32, i32, i32, ptr, i32, ptr, i8, ptr, ptr, ptr, i32, i8, i8, i8, i8, i8, i8, i8, i8, %struct.PQExpBufferData, i32, %struct.PQExpBufferData }
%struct.PGNoticeHooks = type { ptr, ptr, ptr, ptr }
%struct.SockAddr = type { %struct.sockaddr_storage, i32 }
%struct.sockaddr_storage = type { i16, [118 x i8], i64 }
%struct.pg_prng_state = type { i64, i64 }
%struct.PQExpBufferData = type { ptr, i64, i64 }

; Function Attrs: nounwind uwtable
define internal zeroext i1 @select_next_encryption_method(ptr noundef %0, i1 noundef zeroext %1) #0 {
  %3 = alloca i1, align 1
  %4 = alloca ptr, align 8
  %5 = alloca i8, align 1
  %6 = alloca i32, align 4
  %7 = alloca i32, align 4
  store ptr %0, ptr %4, align 8
  %8 = zext i1 %1 to i8
  store i8 %8, ptr %5, align 1
  call void @llvm.lifetime.start.p0(i64 4, ptr %6) #12
  %9 = load ptr, ptr %4, align 8
  %10 = getelementptr inbounds nuw %struct.pg_conn, ptr %9, i32 0, i32 132
  %11 = load i8, ptr %10, align 4
  %12 = zext i8 %11 to i32
  %13 = load ptr, ptr %4, align 8
  %14 = getelementptr inbounds nuw %struct.pg_conn, ptr %13, i32 0, i32 133
  %15 = load i8, ptr %14, align 1
  %16 = zext i8 %15 to i32
  %17 = xor i32 %16, -1
  %18 = and i32 %12, %17
  store i32 %18, ptr %6, align 4
  %19 = load ptr, ptr %4, align 8
  %20 = getelementptr inbounds nuw %struct.pg_conn, ptr %19, i32 0, i32 20
  %21 = load ptr, ptr %20, align 8
  %22 = getelementptr inbounds i8, ptr %21, i64 0
  %23 = load i8, ptr %22, align 1
  %24 = sext i8 %23 to i32
  %25 = icmp eq i32 %24, 97
  br i1 %25, label %26, label %37

26:                                               ; preds = %2
  br label %27

27:                                               ; preds = %26
  %28 = load i32, ptr %6, align 4
  %29 = and i32 %28, 1
  %30 = icmp ne i32 %29, 0
  br i1 %30, label %31, label %34

31:                                               ; preds = %27
  %32 = load ptr, ptr %4, align 8
  %33 = getelementptr inbounds nuw %struct.pg_conn, ptr %32, i32 0, i32 134
  store i8 1, ptr %33, align 2
  store i1 true, ptr %3, align 1
  store i32 1, ptr %7, align 4
  br label %69

34:                                               ; preds = %27
  br label %35

35:                                               ; preds = %34
  br label %36

36:                                               ; preds = %35
  br label %37

37:                                               ; preds = %36, %2
  br label %38

38:                                               ; preds = %37
  %39 = load i32, ptr %6, align 4
  %40 = and i32 %39, 4
  %41 = icmp ne i32 %40, 0
  br i1 %41, label %42, label %45

42:                                               ; preds = %38
  %43 = load ptr, ptr %4, align 8
  %44 = getelementptr inbounds nuw %struct.pg_conn, ptr %43, i32 0, i32 134
  store i8 4, ptr %44, align 2
  store i1 true, ptr %3, align 1
  store i32 1, ptr %7, align 4
  br label %69

45:                                               ; preds = %38
  br label %46

46:                                               ; preds = %45
  br label %47

47:                                               ; preds = %46
  %48 = load ptr, ptr %4, align 8
  %49 = getelementptr inbounds nuw %struct.pg_conn, ptr %48, i32 0, i32 20
  %50 = load ptr, ptr %49, align 8
  %51 = getelementptr inbounds i8, ptr %50, i64 0
  %52 = load i8, ptr %51, align 1
  %53 = sext i8 %52 to i32
  %54 = icmp ne i32 %53, 97
  br i1 %54, label %55, label %66

55:                                               ; preds = %47
  br label %56

56:                                               ; preds = %55
  %57 = load i32, ptr %6, align 4
  %58 = and i32 %57, 1
  %59 = icmp ne i32 %58, 0
  br i1 %59, label %60, label %63

60:                                               ; preds = %56
  %61 = load ptr, ptr %4, align 8
  %62 = getelementptr inbounds nuw %struct.pg_conn, ptr %61, i32 0, i32 134
  store i8 1, ptr %62, align 2
  store i1 true, ptr %3, align 1
  store i32 1, ptr %7, align 4
  br label %69

63:                                               ; preds = %56
  br label %64

64:                                               ; preds = %63
  br label %65

65:                                               ; preds = %64
  br label %66

66:                                               ; preds = %65, %47
  %67 = load ptr, ptr %4, align 8
  %68 = getelementptr inbounds nuw %struct.pg_conn, ptr %67, i32 0, i32 134
  store i8 0, ptr %68, align 2
  store i1 false, ptr %3, align 1
  store i32 1, ptr %7, align 4
  br label %69

69:                                               ; preds = %66, %60, %42, %31
  call void @llvm.lifetime.end.p0(i64 4, ptr %6) #12
  %70 = load i1, ptr %3, align 1
  ret i1 %70
}

; Function Attrs: nounwind uwtable
define internal zeroext i1 @connection_failed(ptr noundef %0) #0 {
  %2 = alloca ptr, align 8
  store ptr %0, ptr %2, align 8
  %3 = load ptr, ptr %2, align 8
  %4 = getelementptr inbounds nuw %struct.pg_conn, ptr %3, i32 0, i32 134
  %5 = load i8, ptr %4, align 2
  %6 = zext i8 %5 to i32
  %7 = load ptr, ptr %2, align 8
  %8 = getelementptr inbounds nuw %struct.pg_conn, ptr %7, i32 0, i32 133
  %9 = load i8, ptr %8, align 1
  %10 = zext i8 %9 to i32
  %11 = or i32 %10, %6
  %12 = trunc i32 %11 to i8
  store i8 %12, ptr %8, align 1
  %13 = load ptr, ptr %2, align 8
  %14 = call zeroext i1 @select_next_encryption_method(ptr noundef %13, i1 noundef zeroext false)
  ret i1 %14
}