; Function Attrs: mustprogress nofree norecurse nosync nounwind willreturn memory(read, argmem: readwrite, inaccessiblemem: none) uwtable
define internal fastcc zeroext i1 @connection_failed(ptr noundef nonnull captures(none) %0) unnamed_addr #13 {
  %2 = getelementptr inbounds nuw i8, ptr %0, i64 1110
  %3 = load i8, ptr %2, align 2
  %4 = getelementptr inbounds nuw i8, ptr %0, i64 1109
  %5 = load i8, ptr %4, align 1
  %6 = or i8 %5, %3
  store i8 %6, ptr %4, align 1
  %7 = getelementptr inbounds nuw i8, ptr %0, i64 1108
  %8 = load i8, ptr %7, align 4
  %9 = zext i8 %8 to i32
  %10 = zext i8 %6 to i32
  %11 = xor i32 %10, -1
  %12 = and i32 %9, %11
  %13 = getelementptr inbounds nuw i8, ptr %0, i64 160
  %14 = load ptr, ptr %13, align 8
  %15 = load i8, ptr %14, align 1
  %16 = icmp ne i8 %15, 97
  %17 = and i32 %12, 1
  %.not.i = icmp eq i32 %17, 0
  %or.cond.i = select i1 %16, i1 true, i1 %.not.i
  br i1 %or.cond.i, label %18, label %select_next_encryption_method.exit

18:                                               ; preds = %1
  %19 = and i32 %12, 4
  %.not11.i = icmp eq i32 %19, 0
  br i1 %.not11.i, label %20, label %select_next_encryption_method.exit

20:                                               ; preds = %18
  %.not12.i = icmp eq i8 %15, 97
  %or.cond14.i = select i1 %.not12.i, i1 true, i1 %.not.i
  %not.or.cond14.i = xor i1 %or.cond14.i, true
  %. = zext i1 %not.or.cond14.i to i8
  %not.or.cond14.i4 = xor i1 %or.cond14.i, true
  br label %select_next_encryption_method.exit

select_next_encryption_method.exit:               ; preds = %20, %18, %1
  %.sink = phi i8 [ 1, %1 ], [ 4, %18 ], [ %., %20 ]
  %.0.i = phi i1 [ true, %1 ], [ true, %18 ], [ %not.or.cond14.i4, %20 ]
  store i8 %.sink, ptr %2, align 2
  ret i1 %.0.i
}